target datalayout = "e-m:e-p270:32:32-p271:32:32-p272:64:64-i64:64-i128:128-f80:128-n8:16:32:64-S128"
target triple = "x86_64-pc-linux-gnu"

%struct._lv_fpoint_t = type { float, float }
%struct.lv_area_t = type { i32, i32, i32, i32 }

; Function Attrs: nounwind uwtable
define void @lv_vector_path_append_rect(ptr noundef %0, ptr noundef %1, float noundef %2, float noundef %3) #0 {
  %5 = alloca ptr, align 8
  %6 = alloca ptr, align 8
  %7 = alloca float, align 4
  %8 = alloca float, align 4
  %9 = alloca float, align 4
  %10 = alloca float, align 4
  %11 = alloca float, align 4
  %12 = alloca float, align 4
  %13 = alloca float, align 4
  %14 = alloca float, align 4
  %15 = alloca %struct._lv_fpoint_t, align 4
  %16 = alloca %struct._lv_fpoint_t, align 4
  %17 = alloca float, align 4
  %18 = alloca float, align 4
  %19 = alloca %struct._lv_fpoint_t, align 4
  %20 = alloca %struct._lv_fpoint_t, align 4
  %21 = alloca %struct._lv_fpoint_t, align 4
  store ptr %0, ptr %5, align 8, !tbaa !3
  store ptr %1, ptr %6, align 8, !tbaa !3
  store float %2, ptr %7, align 4, !tbaa !10
  store float %3, ptr %8, align 4, !tbaa !10
  call void @llvm.lifetime.start.p0(i64 4, ptr %9) #7
  %22 = load ptr, ptr %6, align 8, !tbaa !3
  %23 = getelementptr inbounds nuw %struct.lv_area_t, ptr %22, i32 0, i32 0
  %24 = load i32, ptr %23, align 4, !tbaa !25
  %25 = sitofp i32 %24 to float
  store float %25, ptr %9, align 4, !tbaa !10
  call void @llvm.lifetime.start.p0(i64 4, ptr %10) #7
  %26 = load ptr, ptr %6, align 8, !tbaa !3
  %27 = getelementptr inbounds nuw %struct.lv_area_t, ptr %26, i32 0, i32 1
  %28 = load i32, ptr %27, align 4, !tbaa !27
  %29 = sitofp i32 %28 to float
  store float %29, ptr %10, align 4, !tbaa !10
  call void @llvm.lifetime.start.p0(i64 4, ptr %11) #7
  %30 = load ptr, ptr %6, align 8, !tbaa !3
  %31 = call i32 @lv_area_get_width(ptr noundef %30)
  %32 = sitofp i32 %31 to float
  store float %32, ptr %11, align 4, !tbaa !10
  call void @llvm.lifetime.start.p0(i64 4, ptr %12) #7
  %33 = load ptr, ptr %6, align 8, !tbaa !3
  %34 = call i32 @lv_area_get_height(ptr noundef %33)
  %35 = sitofp i32 %34 to float
  store float %35, ptr %12, align 4, !tbaa !10
  call void @llvm.lifetime.start.p0(i64 4, ptr %13) #7
  %36 = load float, ptr %11, align 4, !tbaa !10
  %37 = fmul float %36, 5.000000e-01
  store float %37, ptr %13, align 4, !tbaa !10
  call void @llvm.lifetime.start.p0(i64 4, ptr %14) #7
  %38 = load float, ptr %12, align 4, !tbaa !10
  %39 = fmul float %38, 5.000000e-01
  store float %39, ptr %14, align 4, !tbaa !10
  %40 = load float, ptr %7, align 4, !tbaa !10
  %41 = load float, ptr %13, align 4, !tbaa !10
  %42 = fcmp ogt float %40, %41
  br i1 %42, label %43, label %45

43:                                               ; preds = %4
  %44 = load float, ptr %13, align 4, !tbaa !10
  store float %44, ptr %7, align 4, !tbaa !10
  br label %45

45:                                               ; preds = %43, %4
  %46 = load float, ptr %8, align 4, !tbaa !10
  %47 = load float, ptr %14, align 4, !tbaa !10
  %48 = fcmp ogt float %46, %47
  br i1 %48, label %49, label %51

49:                                               ; preds = %45
  %50 = load float, ptr %14, align 4, !tbaa !10
  store float %50, ptr %8, align 4, !tbaa !10
  br label %51

51:                                               ; preds = %49, %45
  %52 = load float, ptr %7, align 4, !tbaa !10
  %53 = fcmp oeq float %52, 0.000000e+00
  br i1 %53, label %54, label %79

54:                                               ; preds = %51
  %55 = load float, ptr %8, align 4, !tbaa !10
  %56 = fcmp oeq float %55, 0.000000e+00
  br i1 %56, label %57, label %79

57:                                               ; preds = %54
  call void @llvm.lifetime.start.p0(i64 8, ptr %15) #7
  %58 = getelementptr inbounds nuw %struct._lv_fpoint_t, ptr %15, i32 0, i32 0
  %59 = load float, ptr %9, align 4, !tbaa !10
  store float %59, ptr %58, align 4, !tbaa !7
  %60 = getelementptr inbounds nuw %struct._lv_fpoint_t, ptr %15, i32 0, i32 1
  %61 = load float, ptr %10, align 4, !tbaa !10
  store float %61, ptr %60, align 4, !tbaa !11
  %62 = load ptr, ptr %5, align 8, !tbaa !3
  call void @lv_vector_path_move_to(ptr noundef %62, ptr noundef %15)
  %63 = load float, ptr %11, align 4, !tbaa !10
  %64 = getelementptr inbounds nuw %struct._lv_fpoint_t, ptr %15, i32 0, i32 0
  %65 = load float, ptr %64, align 4, !tbaa !7
  %66 = fadd float %65, %63
  store float %66, ptr %64, align 4, !tbaa !7
  %67 = load ptr, ptr %5, align 8, !tbaa !3
  call void @lv_vector_path_line_to(ptr noundef %67, ptr noundef %15)
  %68 = load float, ptr %12, align 4, !tbaa !10
  %69 = getelementptr inbounds nuw %struct._lv_fpoint_t, ptr %15, i32 0, i32 1
  %70 = load float, ptr %69, align 4, !tbaa !11
  %71 = fadd float %70, %68
  store float %71, ptr %69, align 4, !tbaa !11
  %72 = load ptr, ptr %5, align 8, !tbaa !3
  call void @lv_vector_path_line_to(ptr noundef %72, ptr noundef %15)
  %73 = load float, ptr %11, align 4, !tbaa !10
  %74 = getelementptr inbounds nuw %struct._lv_fpoint_t, ptr %15, i32 0, i32 0
  %75 = load float, ptr %74, align 4, !tbaa !7
  %76 = fsub float %75, %73
  store float %76, ptr %74, align 4, !tbaa !7
  %77 = load ptr, ptr %5, align 8, !tbaa !3
  call void @lv_vector_path_line_to(ptr noundef %77, ptr noundef %15)
  %78 = load ptr, ptr %5, align 8, !tbaa !3
  call void @lv_vector_path_close(ptr noundef %78)
  call void @llvm.lifetime.end.p0(i64 8, ptr %15) #7
  br label %265

79:                                               ; preds = %54, %51
  %80 = load float, ptr %7, align 4, !tbaa !10
  %81 = load float, ptr %13, align 4, !tbaa !10
  %82 = fcmp oeq float %80, %81
  br i1 %82, label %83, label %99

83:                                               ; preds = %79
  %84 = load float, ptr %8, align 4, !tbaa !10
  %85 = load float, ptr %14, align 4, !tbaa !10
  %86 = fcmp oeq float %84, %85
  br i1 %86, label %87, label %99

87:                                               ; preds = %83
  call void @llvm.lifetime.start.p0(i64 8, ptr %16) #7
  %88 = getelementptr inbounds nuw %struct._lv_fpoint_t, ptr %16, i32 0, i32 0
  %89 = load float, ptr %9, align 4, !tbaa !10
  %90 = load float, ptr %11, align 4, !tbaa !10
  %91 = call float @llvm.fmuladd.f32(float %90, float 5.000000e-01, float %89)
  store float %91, ptr %88, align 4, !tbaa !7
  %92 = getelementptr inbounds nuw %struct._lv_fpoint_t, ptr %16, i32 0, i32 1
  %93 = load float, ptr %10, align 4, !tbaa !10
  %94 = load float, ptr %12, align 4, !tbaa !10
  %95 = call float @llvm.fmuladd.f32(float %94, float 5.000000e-01, float %93)
  store float %95, ptr %92, align 4, !tbaa !11
  %96 = load ptr, ptr %5, align 8, !tbaa !3
  %97 = load float, ptr %7, align 4, !tbaa !10
  %98 = load float, ptr %8, align 4, !tbaa !10
  call void @lv_vector_path_append_circle(ptr noundef %96, ptr noundef %16, float noundef %97, float noundef %98)
  call void @llvm.lifetime.end.p0(i64 8, ptr %16) #7
  br label %264

99:                                               ; preds = %83, %79
  call void @llvm.lifetime.start.p0(i64 4, ptr %17) #7
  %100 = load float, ptr %7, align 4, !tbaa !10
  %101 = fmul float %100, 5.000000e-01
  store float %101, ptr %17, align 4, !tbaa !10
  call void @llvm.lifetime.start.p0(i64 4, ptr %18) #7
  %102 = load float, ptr %8, align 4, !tbaa !10
  %103 = fmul float %102, 5.000000e-01
  store float %103, ptr %18, align 4, !tbaa !10
  call void @llvm.lifetime.start.p0(i64 8, ptr %19) #7
  call void @llvm.lifetime.start.p0(i64 8, ptr %20) #7
  call void @llvm.lifetime.start.p0(i64 8, ptr %21) #7
  %104 = load float, ptr %9, align 4, !tbaa !10
  %105 = load float, ptr %7, align 4, !tbaa !10
  %106 = fadd float %104, %105
  %107 = getelementptr inbounds nuw %struct._lv_fpoint_t, ptr %19, i32 0, i32 0
  store float %106, ptr %107, align 4, !tbaa !7
  %108 = load float, ptr %10, align 4, !tbaa !10
  %109 = getelementptr inbounds nuw %struct._lv_fpoint_t, ptr %19, i32 0, i32 1
  store float %108, ptr %109, align 4, !tbaa !11
  %110 = load ptr, ptr %5, align 8, !tbaa !3
  call void @lv_vector_path_move_to(ptr noundef %110, ptr noundef %19)
  %111 = load float, ptr %9, align 4, !tbaa !10
  %112 = load float, ptr %11, align 4, !tbaa !10
  %113 = fadd float %111, %112
  %114 = load float, ptr %7, align 4, !tbaa !10
  %115 = fsub float %113, %114
  %116 = getelementptr inbounds nuw %struct._lv_fpoint_t, ptr %19, i32 0, i32 0
  store float %115, ptr %116, align 4, !tbaa !7
  %117 = load float, ptr %10, align 4, !tbaa !10
  %118 = getelementptr inbounds nuw %struct._lv_fpoint_t, ptr %19, i32 0, i32 1
  store float %117, ptr %118, align 4, !tbaa !11
  %119 = load ptr, ptr %5, align 8, !tbaa !3
  call void @lv_vector_path_line_to(ptr noundef %119, ptr noundef %19)
  %120 = load float, ptr %9, align 4, !tbaa !10
  %121 = load float, ptr %11, align 4, !tbaa !10
  %122 = fadd float %120, %121
  %123 = load float, ptr %7, align 4, !tbaa !10
  %124 = fsub float %122, %123
  %125 = load float, ptr %17, align 4, !tbaa !10
  %126 = fadd float %124, %125
  %127 = getelementptr inbounds nuw %struct._lv_fpoint_t, ptr %19, i32 0, i32 0
  store float %126, ptr %127, align 4, !tbaa !7
  %128 = load float, ptr %10, align 4, !tbaa !10
  %129 = getelementptr inbounds nuw %struct._lv_fpoint_t, ptr %19, i32 0, i32 1
  store float %128, ptr %129, align 4, !tbaa !11
  %130 = load float, ptr %9, align 4, !tbaa !10
  %131 = load float, ptr %11, align 4, !tbaa !10
  %132 = fadd float %130, %131
  %133 = getelementptr inbounds nuw %struct._lv_fpoint_t, ptr %20, i32 0, i32 0
  store float %132, ptr %133, align 4, !tbaa !7
  %134 = load float, ptr %10, align 4, !tbaa !10
  %135 = load float, ptr %8, align 4, !tbaa !10
  %136 = fadd float %134, %135
  %137 = load float, ptr %18, align 4, !tbaa !10
  %138 = fsub float %136, %137
  %139 = getelementptr inbounds nuw %struct._lv_fpoint_t, ptr %20, i32 0, i32 1
  store float %138, ptr %139, align 4, !tbaa !11
  %140 = load float, ptr %9, align 4, !tbaa !10
  %141 = load float, ptr %11, align 4, !tbaa !10
  %142 = fadd float %140, %141
  %143 = getelementptr inbounds nuw %struct._lv_fpoint_t, ptr %21, i32 0, i32 0
  store float %142, ptr %143, align 4, !tbaa !7
  %144 = load float, ptr %10, align 4, !tbaa !10
  %145 = load float, ptr %8, align 4, !tbaa !10
  %146 = fadd float %144, %145
  %147 = getelementptr inbounds nuw %struct._lv_fpoint_t, ptr %21, i32 0, i32 1
  store float %146, ptr %147, align 4, !tbaa !11
  %148 = load ptr, ptr %5, align 8, !tbaa !3
  call void @lv_vector_path_cubic_to(ptr noundef %148, ptr noundef %19, ptr noundef %20, ptr noundef %21)
  %149 = load float, ptr %9, align 4, !tbaa !10
  %150 = load float, ptr %11, align 4, !tbaa !10
  %151 = fadd float %149, %150
  %152 = getelementptr inbounds nuw %struct._lv_fpoint_t, ptr %19, i32 0, i32 0
  store float %151, ptr %152, align 4, !tbaa !7
  %153 = load float, ptr %10, align 4, !tbaa !10
  %154 = load float, ptr %12, align 4, !tbaa !10
  %155 = fadd float %153, %154
  %156 = load float, ptr %8, align 4, !tbaa !10
  %157 = fsub float %155, %156
  %158 = getelementptr inbounds nuw %struct._lv_fpoint_t, ptr %19, i32 0, i32 1
  store float %157, ptr %158, align 4, !tbaa !11
  %159 = load ptr, ptr %5, align 8, !tbaa !3
  call void @lv_vector_path_line_to(ptr noundef %159, ptr noundef %19)
  %160 = load float, ptr %9, align 4, !tbaa !10
  %161 = load float, ptr %11, align 4, !tbaa !10
  %162 = fadd float %160, %161
  %163 = getelementptr inbounds nuw %struct._lv_fpoint_t, ptr %19, i32 0, i32 0
  store float %162, ptr %163, align 4, !tbaa !7
  %164 = load float, ptr %10, align 4, !tbaa !10
  %165 = load float, ptr %12, align 4, !tbaa !10
  %166 = fadd float %164, %165
  %167 = load float, ptr %8, align 4, !tbaa !10
  %168 = fsub float %166, %167
  %169 = load float, ptr %18, align 4, !tbaa !10
  %170 = fadd float %168, %169
  %171 = getelementptr inbounds nuw %struct._lv_fpoint_t, ptr %19, i32 0, i32 1
  store float %170, ptr %171, align 4, !tbaa !11
  %172 = load float, ptr %9, align 4, !tbaa !10
  %173 = load float, ptr %11, align 4, !tbaa !10
  %174 = fadd float %172, %173
  %175 = load float, ptr %7, align 4, !tbaa !10
  %176 = fsub float %174, %175
  %177 = load float, ptr %17, align 4, !tbaa !10
  %178 = fadd float %176, %177
  %179 = getelementptr inbounds nuw %struct._lv_fpoint_t, ptr %20, i32 0, i32 0
  store float %178, ptr %179, align 4, !tbaa !7
  %180 = load float, ptr %10, align 4, !tbaa !10
  %181 = load float, ptr %12, align 4, !tbaa !10
  %182 = fadd float %180, %181
  %183 = getelementptr inbounds nuw %struct._lv_fpoint_t, ptr %20, i32 0, i32 1
  store float %182, ptr %183, align 4, !tbaa !11
  %184 = load float, ptr %9, align 4, !tbaa !10
  %185 = load float, ptr %11, align 4, !tbaa !10
  %186 = fadd float %184, %185
  %187 = load float, ptr %7, align 4, !tbaa !10
  %188 = fsub float %186, %187
  %189 = getelementptr inbounds nuw %struct._lv_fpoint_t, ptr %21, i32 0, i32 0
  store float %188, ptr %189, align 4, !tbaa !7
  %190 = load float, ptr %10, align 4, !tbaa !10
  %191 = load float, ptr %12, align 4, !tbaa !10
  %192 = fadd float %190, %191
  %193 = getelementptr inbounds nuw %struct._lv_fpoint_t, ptr %21, i32 0, i32 1
  store float %192, ptr %193, align 4, !tbaa !11
  %194 = load ptr, ptr %5, align 8, !tbaa !3
  call void @lv_vector_path_cubic_to(ptr noundef %194, ptr noundef %19, ptr noundef %20, ptr noundef %21)
  %195 = load float, ptr %9, align 4, !tbaa !10
  %196 = load float, ptr %7, align 4, !tbaa !10
  %197 = fadd float %195, %196
  %198 = getelementptr inbounds nuw %struct._lv_fpoint_t, ptr %19, i32 0, i32 0
  store float %197, ptr %198, align 4, !tbaa !7
  %199 = load float, ptr %10, align 4, !tbaa !10
  %200 = load float, ptr %12, align 4, !tbaa !10
  %201 = fadd float %199, %200
  %202 = getelementptr inbounds nuw %struct._lv_fpoint_t, ptr %19, i32 0, i32 1
  store float %201, ptr %202, align 4, !tbaa !11
  %203 = load ptr, ptr %5, align 8, !tbaa !3
  call void @lv_vector_path_line_to(ptr noundef %203, ptr noundef %19)
  %204 = load float, ptr %9, align 4, !tbaa !10
  %205 = load float, ptr %7, align 4, !tbaa !10
  %206 = fadd float %204, %205
  %207 = load float, ptr %17, align 4, !tbaa !10
  %208 = fsub float %206, %207
  %209 = getelementptr inbounds nuw %struct._lv_fpoint_t, ptr %19, i32 0, i32 0
  store float %208, ptr %209, align 4, !tbaa !7
  %210 = load float, ptr %10, align 4, !tbaa !10
  %211 = load float, ptr %12, align 4, !tbaa !10
  %212 = fadd float %210, %211
  %213 = getelementptr inbounds nuw %struct._lv_fpoint_t, ptr %19, i32 0, i32 1
  store float %212, ptr %213, align 4, !tbaa !11
  %214 = load float, ptr %9, align 4, !tbaa !10
  %215 = getelementptr inbounds nuw %struct._lv_fpoint_t, ptr %20, i32 0, i32 0
  store float %214, ptr %215, align 4, !tbaa !7
  %216 = load float, ptr %10, align 4, !tbaa !10
  %217 = load float, ptr %12, align 4, !tbaa !10
  %218 = fadd float %216, %217
  %219 = load float, ptr %8, align 4, !tbaa !10
  %220 = fsub float %218, %219
  %221 = load float, ptr %18, align 4, !tbaa !10
  %222 = fadd float %220, %221
  %223 = getelementptr inbounds nuw %struct._lv_fpoint_t, ptr %20, i32 0, i32 1
  store float %222, ptr %223, align 4, !tbaa !11
  %224 = load float, ptr %9, align 4, !tbaa !10
  %225 = getelementptr inbounds nuw %struct._lv_fpoint_t, ptr %21, i32 0, i32 0
  store float %224, ptr %225, align 4, !tbaa !7
  %226 = load float, ptr %10, align 4, !tbaa !10
  %227 = load float, ptr %12, align 4, !tbaa !10
  %228 = fadd float %226, %227
  %229 = load float, ptr %8, align 4, !tbaa !10
  %230 = fsub float %228, %229
  %231 = getelementptr inbounds nuw %struct._lv_fpoint_t, ptr %21, i32 0, i32 1
  store float %230, ptr %231, align 4, !tbaa !11
  %232 = load ptr, ptr %5, align 8, !tbaa !3
  call void @lv_vector_path_cubic_to(ptr noundef %232, ptr noundef %19, ptr noundef %20, ptr noundef %21)
  %233 = load float, ptr %9, align 4, !tbaa !10
  %234 = getelementptr inbounds nuw %struct._lv_fpoint_t, ptr %19, i32 0, i32 0
  store float %233, ptr %234, align 4, !tbaa !7
  %235 = load float, ptr %10, align 4, !tbaa !10
  %236 = load float, ptr %8, align 4, !tbaa !10
  %237 = fadd float %235, %236
  %238 = getelementptr inbounds nuw %struct._lv_fpoint_t, ptr %19, i32 0, i32 1
  store float %237, ptr %238, align 4, !tbaa !11
  %239 = load ptr, ptr %5, align 8, !tbaa !3
  call void @lv_vector_path_line_to(ptr noundef %239, ptr noundef %19)
  %240 = load float, ptr %9, align 4, !tbaa !10
  %241 = getelementptr inbounds nuw %struct._lv_fpoint_t, ptr %19, i32 0, i32 0
  store float %240, ptr %241, align 4, !tbaa !7
  %242 = load float, ptr %10, align 4, !tbaa !10
  %243 = load float, ptr %8, align 4, !tbaa !10
  %244 = fadd float %242, %243
  %245 = load float, ptr %18, align 4, !tbaa !10
  %246 = fsub float %244, %245
  %247 = getelementptr inbounds nuw %struct._lv_fpoint_t, ptr %19, i32 0, i32 1
  store float %246, ptr %247, align 4, !tbaa !11
  %248 = load float, ptr %9, align 4, !tbaa !10
  %249 = load float, ptr %7, align 4, !tbaa !10
  %250 = fadd float %248, %249
  %251 = load float, ptr %17, align 4, !tbaa !10
  %252 = fsub float %250, %251
  %253 = getelementptr inbounds nuw %struct._lv_fpoint_t, ptr %20, i32 0, i32 0
  store float %252, ptr %253, align 4, !tbaa !7
  %254 = load float, ptr %10, align 4, !tbaa !10
  %255 = getelementptr inbounds nuw %struct._lv_fpoint_t, ptr %20, i32 0, i32 1
  store float %254, ptr %255, align 4, !tbaa !11
  %256 = load float, ptr %9, align 4, !tbaa !10
  %257 = load float, ptr %7, align 4, !tbaa !10
  %258 = fadd float %256, %257
  %259 = getelementptr inbounds nuw %struct._lv_fpoint_t, ptr %21, i32 0, i32 0
  store float %258, ptr %259, align 4, !tbaa !7
  %260 = load float, ptr %10, align 4, !tbaa !10
  %261 = getelementptr inbounds nuw %struct._lv_fpoint_t, ptr %21, i32 0, i32 1
  store float %260, ptr %261, align 4, !tbaa !11
  %262 = load ptr, ptr %5, align 8, !tbaa !3
  call void @lv_vector_path_cubic_to(ptr noundef %262, ptr noundef %19, ptr noundef %20, ptr noundef %21)
  %263 = load ptr, ptr %5, align 8, !tbaa !3
  call void @lv_vector_path_close(ptr noundef %263)
  call void @llvm.lifetime.end.p0(i64 8, ptr %21) #7
  call void @llvm.lifetime.end.p0(i64 8, ptr %20) #7
  call void @llvm.lifetime.end.p0(i64 8, ptr %19) #7
  call void @llvm.lifetime.end.p0(i64 4, ptr %18) #7
  call void @llvm.lifetime.end.p0(i64 4, ptr %17) #7
  br label %264

264:                                              ; preds = %99, %87
  br label %265

265:                                              ; preds = %264, %57
  call void @llvm.lifetime.end.p0(i64 4, ptr %14) #7
  call void @llvm.lifetime.end.p0(i64 4, ptr %13) #7
  call void @llvm.lifetime.end.p0(i64 4, ptr %12) #7
  call void @llvm.lifetime.end.p0(i64 4, ptr %11) #7
  call void @llvm.lifetime.end.p0(i64 4, ptr %10) #7
  call void @llvm.lifetime.end.p0(i64 4, ptr %9) #7
  ret void
}