; Function Attrs: nounwind uwtable
define void @lv_vector_path_append_rect(ptr noundef %0, ptr noundef %1, float noundef %2, float noundef %3) local_unnamed_addr #3 {
  %5 = alloca %struct._lv_fpoint_t, align 4
  %6 = alloca %struct._lv_fpoint_t, align 4
  %7 = alloca %struct._lv_fpoint_t, align 4
  %8 = alloca %struct._lv_fpoint_t, align 4
  %9 = alloca %struct._lv_fpoint_t, align 4
  %10 = load i32, ptr %1, align 4, !tbaa !21
  %11 = sitofp i32 %10 to float
  %12 = getelementptr inbounds nuw i8, ptr %1, i64 4
  %13 = load i32, ptr %12, align 4, !tbaa !23
  %14 = sitofp i32 %13 to float
  %15 = tail call i32 @lv_area_get_width(ptr noundef nonnull %1) #9
  %16 = sitofp i32 %15 to float
  %17 = tail call i32 @lv_area_get_height(ptr noundef nonnull %1) #9
  %18 = sitofp i32 %17 to float
  %19 = fmul float %16, 5.000000e-01
  %20 = fmul float %18, 5.000000e-01
  %21 = fcmp ogt float %2, %19
  %.0 = select i1 %21, float %19, float %2
  %22 = fcmp ogt float %3, %20
  %.0123 = select i1 %22, float %20, float %3
  %23 = fcmp oeq float %.0, 0.000000e+00
  %24 = fcmp oeq float %.0123, 0.000000e+00
  %or.cond = select i1 %23, i1 %24, i1 false
  br i1 %or.cond, label %25, label %33

25:                                               ; preds = %4
  call void @llvm.lifetime.start.p0(i64 8, ptr nonnull %5) #9
  store float %11, ptr %5, align 4, !tbaa !3
  %26 = getelementptr inbounds nuw i8, ptr %5, i64 4
  store float %14, ptr %26, align 4, !tbaa !8
  call void @lv_vector_path_move_to(ptr noundef %0, ptr noundef nonnull %5)
  %27 = load float, ptr %5, align 4, !tbaa !3
  %28 = fadd float %27, %16
  store float %28, ptr %5, align 4, !tbaa !3
  call void @lv_vector_path_line_to(ptr noundef %0, ptr noundef nonnull %5)
  %29 = load float, ptr %26, align 4, !tbaa !8
  %30 = fadd float %29, %18
  store float %30, ptr %26, align 4, !tbaa !8
  call void @lv_vector_path_line_to(ptr noundef %0, ptr noundef nonnull %5)
  %31 = load float, ptr %5, align 4, !tbaa !3
  %32 = fsub float %31, %16
  store float %32, ptr %5, align 4, !tbaa !3
  call void @lv_vector_path_line_to(ptr noundef %0, ptr noundef nonnull %5)
  call void @lv_vector_path_close(ptr noundef %0)
  call void @llvm.lifetime.end.p0(i64 8, ptr nonnull %5) #9
  br label %56

33:                                               ; preds = %4
  %34 = fcmp oeq float %.0, %19
  %35 = fcmp oeq float %.0123, %20
  %or.cond128 = select i1 %34, i1 %35, i1 false
  br i1 %or.cond128, label %36, label %40

36:                                               ; preds = %33
  call void @llvm.lifetime.start.p0(i64 8, ptr nonnull %6) #9
  %37 = tail call float @llvm.fmuladd.f32(float %16, float 5.000000e-01, float %11)
  store float %37, ptr %6, align 4, !tbaa !3
  %38 = getelementptr inbounds nuw i8, ptr %6, i64 4
  %39 = tail call float @llvm.fmuladd.f32(float %18, float 5.000000e-01, float %14)
  store float %39, ptr %38, align 4, !tbaa !8
  call void @lv_vector_path_append_circle(ptr noundef %0, ptr noundef nonnull %6, float noundef %.0, float noundef %.0123)
  call void @llvm.lifetime.end.p0(i64 8, ptr nonnull %6) #9
  br label %56

40:                                               ; preds = %33
  %41 = fmul float %.0, 5.000000e-01
  %42 = fmul float %.0123, 5.000000e-01
  call void @llvm.lifetime.start.p0(i64 8, ptr nonnull %7) #9
  call void @llvm.lifetime.start.p0(i64 8, ptr nonnull %8) #9
  call void @llvm.lifetime.start.p0(i64 8, ptr nonnull %9) #9
  %43 = fadd float %.0, %11
  store float %43, ptr %7, align 4, !tbaa !3
  %44 = getelementptr inbounds nuw i8, ptr %7, i64 4
  store float %14, ptr %44, align 4, !tbaa !8
  call void @lv_vector_path_move_to(ptr noundef %0, ptr noundef nonnull %7)
  %45 = fadd float %11, %16
  %46 = fsub float %45, %.0
  store float %46, ptr %7, align 4, !tbaa !3
  store float %14, ptr %44, align 4, !tbaa !8
  call void @lv_vector_path_line_to(ptr noundef %0, ptr noundef nonnull %7)
  %47 = fadd float %46, %41
  store float %47, ptr %7, align 4, !tbaa !3
  store float %14, ptr %44, align 4, !tbaa !8
  store float %45, ptr %8, align 4, !tbaa !3
  %48 = fadd float %.0123, %14
  %49 = fsub float %48, %42
  %50 = getelementptr inbounds nuw i8, ptr %8, i64 4
  store float %49, ptr %50, align 4, !tbaa !8
  store float %45, ptr %9, align 4, !tbaa !3
  %51 = getelementptr inbounds nuw i8, ptr %9, i64 4
  store float %48, ptr %51, align 4, !tbaa !8
  call void @lv_vector_path_cubic_to(ptr noundef %0, ptr noundef nonnull %7, ptr noundef nonnull %8, ptr noundef nonnull %9)
  store float %45, ptr %7, align 4, !tbaa !3
  %52 = fadd float %14, %18
  %53 = fsub float %52, %.0123
  store float %53, ptr %44, align 4, !tbaa !8
  call void @lv_vector_path_line_to(ptr noundef %0, ptr noundef nonnull %7)
  store float %45, ptr %7, align 4, !tbaa !3
  %54 = fadd float %53, %42
  store float %54, ptr %44, align 4, !tbaa !8
  store float %47, ptr %8, align 4, !tbaa !3
  store float %52, ptr %50, align 4, !tbaa !8
  store float %46, ptr %9, align 4, !tbaa !3
  store float %52, ptr %51, align 4, !tbaa !8
  call void @lv_vector_path_cubic_to(ptr noundef %0, ptr noundef nonnull %7, ptr noundef nonnull %8, ptr noundef nonnull %9)
  store float %43, ptr %7, align 4, !tbaa !3
  store float %52, ptr %44, align 4, !tbaa !8
  call void @lv_vector_path_line_to(ptr noundef %0, ptr noundef nonnull %7)
  %55 = fsub float %43, %41
  store float %55, ptr %7, align 4, !tbaa !3
  store float %52, ptr %44, align 4, !tbaa !8
  store float %11, ptr %8, align 4, !tbaa !3
  store float %54, ptr %50, align 4, !tbaa !8
  store float %11, ptr %9, align 4, !tbaa !3
  store float %53, ptr %51, align 4, !tbaa !8
  call void @lv_vector_path_cubic_to(ptr noundef %0, ptr noundef nonnull %7, ptr noundef nonnull %8, ptr noundef nonnull %9)
  store float %11, ptr %7, align 4, !tbaa !3
  store float %48, ptr %44, align 4, !tbaa !8
  call void @lv_vector_path_line_to(ptr noundef %0, ptr noundef nonnull %7)
  store float %11, ptr %7, align 4, !tbaa !3
  store float %49, ptr %44, align 4, !tbaa !8
  store float %55, ptr %8, align 4, !tbaa !3
  store float %14, ptr %50, align 4, !tbaa !8
  store float %43, ptr %9, align 4, !tbaa !3
  store float %14, ptr %51, align 4, !tbaa !8
  call void @lv_vector_path_cubic_to(ptr noundef %0, ptr noundef nonnull %7, ptr noundef nonnull %8, ptr noundef nonnull %9)
  call void @lv_vector_path_close(ptr noundef %0)
  call void @llvm.lifetime.end.p0(i64 8, ptr nonnull %9) #9
  call void @llvm.lifetime.end.p0(i64 8, ptr nonnull %8) #9
  call void @llvm.lifetime.end.p0(i64 8, ptr nonnull %7) #9
  br label %56

56:                                               ; preds = %36, %40, %25
  ret void
}